target datalayout = "e-m:e-p270:32:32-p271:32:32-p272:64:64-i64:64-i128:128-f80:128-n8:16:32:64-S128"
target triple = "x86_64-pc-linux-gnu"

%struct.Input = type { i32, %struct.path_info, i32, i32, i32, i32, i32, ptr, i32, i32, i32, i32, ptr, ptr, i32, i32, ptr, ptr, [15 x i32] }
%struct.path_info = type { [20 x [255 x i8]], i32 }

@.str.13 = private unnamed_addr constant [8 x i8] c"dataset\00", align 1
@.str.14 = private unnamed_addr constant [3 x i8] c"%d\00", align 1

; Function Attrs: nounwind uwtable
define dso_local void @setDefaultValues(ptr noundef %0, i32 noundef %1) #0 {
  %3 = alloca ptr, align 8
  %4 = alloca i32, align 4
  %5 = alloca i32, align 4
  %6 = alloca [255 x i8], align 16
  %7 = alloca [255 x i8], align 16
  store ptr %0, ptr %3, align 8, !tbaa !11
  store i32 %1, ptr %4, align 4, !tbaa !4
  call void @llvm.lifetime.start.p0(i64 4, ptr %5) #12
  call void @llvm.lifetime.start.p0(i64 255, ptr %6) #12
  call void @llvm.lifetime.start.p0(i64 255, ptr %7) #12
  %8 = load ptr, ptr %3, align 8, !tbaa !11
  %9 = getelementptr inbounds nuw %struct.Input, ptr %8, i32 0, i32 0
  store i32 0, ptr %9, align 8, !tbaa !42
  %10 = load ptr, ptr %3, align 8, !tbaa !11
  %11 = getelementptr inbounds nuw %struct.Input, ptr %10, i32 0, i32 2
  store i32 3, ptr %11, align 4, !tbaa !26
  %12 = load ptr, ptr %3, align 8, !tbaa !11
  %13 = getelementptr inbounds nuw %struct.Input, ptr %12, i32 0, i32 3
  store i32 32, ptr %13, align 8, !tbaa !28
  %14 = load ptr, ptr %3, align 8, !tbaa !11
  %15 = getelementptr inbounds nuw %struct.Input, ptr %14, i32 0, i32 8
  store i32 1, ptr %15, align 8, !tbaa !27
  %16 = load ptr, ptr %3, align 8, !tbaa !11
  %17 = getelementptr inbounds nuw %struct.Input, ptr %16, i32 0, i32 9
  store i32 32, ptr %17, align 4, !tbaa !29
  %18 = load ptr, ptr %3, align 8, !tbaa !11
  %19 = getelementptr inbounds nuw %struct.Input, ptr %18, i32 0, i32 5
  store i32 -1, ptr %19, align 8, !tbaa !43
  %20 = load ptr, ptr %3, align 8, !tbaa !11
  %21 = getelementptr inbounds nuw %struct.Input, ptr %20, i32 0, i32 6
  store i32 0, ptr %21, align 4, !tbaa !44
  %22 = load ptr, ptr %3, align 8, !tbaa !11
  %23 = getelementptr inbounds nuw %struct.Input, ptr %22, i32 0, i32 1
  %24 = getelementptr inbounds nuw %struct.path_info, ptr %23, i32 0, i32 1
  store i32 1, ptr %24, align 4, !tbaa !45
  %25 = getelementptr inbounds [255 x i8], ptr %6, i64 0, i64 0
  %26 = call ptr @strcpy(ptr noundef %25, ptr noundef @.str.13) #12
  %27 = getelementptr inbounds [255 x i8], ptr %7, i64 0, i64 0
  %28 = load i32, ptr %4, align 4, !tbaa !4
  %29 = call i32 (ptr, i64, ptr, ...) @snprintf(ptr noundef %27, i64 noundef 255, ptr noundef @.str.14, i32 noundef %28) #12
  %30 = getelementptr inbounds [255 x i8], ptr %6, i64 0, i64 0
  %31 = getelementptr inbounds [255 x i8], ptr %7, i64 0, i64 0
  %32 = call ptr @strcat(ptr noundef %30, ptr noundef %31) #12
  %33 = load ptr, ptr %3, align 8, !tbaa !11
  %34 = getelementptr inbounds nuw %struct.Input, ptr %33, i32 0, i32 1
  %35 = getelementptr inbounds nuw %struct.path_info, ptr %34, i32 0, i32 0
  %36 = getelementptr inbounds [20 x [255 x i8]], ptr %35, i64 0, i64 0
  %37 = getelementptr inbounds [255 x i8], ptr %36, i64 0, i64 0
  %38 = getelementptr inbounds [255 x i8], ptr %6, i64 0, i64 0
  %39 = call ptr @strcpy(ptr noundef %37, ptr noundef %38) #12
  %40 = load ptr, ptr %3, align 8, !tbaa !11
  %41 = getelementptr inbounds nuw %struct.Input, ptr %40, i32 0, i32 10
  store i32 0, ptr %41, align 8, !tbaa !46
  %42 = load ptr, ptr %3, align 8, !tbaa !11
  %43 = getelementptr inbounds nuw %struct.Input, ptr %42, i32 0, i32 11
  store i32 -1, ptr %43, align 4, !tbaa !47
  %44 = load ptr, ptr %3, align 8, !tbaa !11
  %45 = getelementptr inbounds nuw %struct.Input, ptr %44, i32 0, i32 14
  store i32 0, ptr %45, align 8, !tbaa !48
  store i32 0, ptr %5, align 4, !tbaa !4
  br label %46

46:                                               ; preds = %55, %2
  %47 = load i32, ptr %5, align 4, !tbaa !4
  %48 = icmp slt i32 %47, 15
  br i1 %48, label %49, label %58

49:                                               ; preds = %46
  %50 = load ptr, ptr %3, align 8, !tbaa !11
  %51 = getelementptr inbounds nuw %struct.Input, ptr %50, i32 0, i32 18
  %52 = load i32, ptr %5, align 4, !tbaa !4
  %53 = sext i32 %52 to i64
  %54 = getelementptr inbounds [15 x i32], ptr %51, i64 0, i64 %53
  store i32 0, ptr %54, align 4, !tbaa !4
  br label %55

55:                                               ; preds = %49
  %56 = load i32, ptr %5, align 4, !tbaa !4
  %57 = add nsw i32 %56, 1
  store i32 %57, ptr %5, align 4, !tbaa !4
  br label %46, !llvm.loop !49

58:                                               ; preds = %46
  call void @llvm.lifetime.end.p0(i64 255, ptr %7) #12
  call void @llvm.lifetime.end.p0(i64 255, ptr %6) #12
  call void @llvm.lifetime.end.p0(i64 4, ptr %5) #12
  ret void
}