; Function Attrs: nofree nounwind uwtable
define dso_local void @setDefaultValues(ptr noundef initializes((0, 4), (5104, 5116), (5120, 5128), (5136, 5144)) %0, i32 noundef %1) local_unnamed_addr #7 {
  %3 = alloca [255 x i8], align 16
  %4 = alloca [255 x i8], align 16
  call void @llvm.lifetime.start.p0(i64 255, ptr nonnull %3) #18
  call void @llvm.lifetime.start.p0(i64 255, ptr nonnull %4) #18
  store i32 0, ptr %0, align 8, !tbaa !21
  %5 = getelementptr inbounds nuw i8, ptr %0, i64 5108
  store i32 3, ptr %5, align 4, !tbaa !22
  %6 = getelementptr inbounds nuw i8, ptr %0, i64 5112
  store i32 32, ptr %6, align 8, !tbaa !23
  %7 = getelementptr inbounds nuw i8, ptr %0, i64 5136
  store i32 1, ptr %7, align 8, !tbaa !24
  %8 = getelementptr inbounds nuw i8, ptr %0, i64 5140
  store i32 32, ptr %8, align 4, !tbaa !25
  %9 = getelementptr inbounds nuw i8, ptr %0, i64 5120
  store i32 -1, ptr %9, align 8, !tbaa !26
  %10 = getelementptr inbounds nuw i8, ptr %0, i64 5124
  store i32 0, ptr %10, align 4, !tbaa !27
  %11 = getelementptr inbounds nuw i8, ptr %0, i64 4
  %12 = getelementptr inbounds nuw i8, ptr %0, i64 5104
  store i32 1, ptr %12, align 4, !tbaa !28
  store i64 32762643529097572, ptr %3, align 16
  %13 = call i32 (ptr, i64, ptr, ...) @snprintf(ptr noundef nonnull dereferenceable(1) %4, i64 noundef 255, ptr noundef nonnull @.str.14, i32 noundef %1) #18
  %14 = call ptr @strcat(ptr noundef nonnull dereferenceable(1) %3, ptr noundef nonnull dereferenceable(1) %4) #18
  %15 = call ptr @strcpy(ptr noundef nonnull dereferenceable(1) %11, ptr noundef nonnull dereferenceable(1) %3) #18
  %16 = getelementptr inbounds nuw i8, ptr %0, i64 5144
  store i32 0, ptr %16, align 8, !tbaa !29
  %17 = getelementptr inbounds nuw i8, ptr %0, i64 5148
  store i32 -1, ptr %17, align 4, !tbaa !30
  %18 = getelementptr inbounds nuw i8, ptr %0, i64 5168
  store i32 0, ptr %18, align 8, !tbaa !31
  %19 = getelementptr inbounds nuw i8, ptr %0, i64 5192
  call void @llvm.memset.p0.i64(ptr noundef nonnull align 4 dereferenceable(60) %19, i8 0, i64 60, i1 false), !tbaa !12
  call void @llvm.lifetime.end.p0(i64 255, ptr nonnull %4) #18
  call void @llvm.lifetime.end.p0(i64 255, ptr nonnull %3) #18
  ret void
}